Certificate:
    Data:
        Version: 3 (0x2)
        Serial Number: 2 (0x2)
    Signature Algorithm: sha256WithRSAEncryption
        Issuer: CN=Easy-RSA-KMC CA
        Validity
            Not Before: Mar 15 16:41:47 2016 GMT
            Not After : Mar 13 16:41:47 2026 GMT
        Subject: CN=KmcEntity
        Subject Public Key Info:
            Public Key Algorithm: rsaEncryption
                Public-Key: (4096 bit)
                Modulus:
                    00:b8:ac:b3:9a:c7:01:09:ac:21:00:3c:7f:04:21:
                    30:7e:e0:d8:f6:a7:38:2b:fc:0a:31:6d:e0:a3:cf:
                    36:31:75:30:ec:10:7c:03:c4:f6:da:f3:2c:a4:02:
                    31:4b:3a:73:49:af:e5:35:72:e2:a3:2e:e8:2f:79:
                    5b:bc:04:30:78:cc:d5:6b:78:82:8e:8d:ca:c5:c9:
                    bd:68:0c:87:93:e9:9c:83:e4:4d:b9:46:85:8f:aa:
                    83:89:78:c0:4b:89:05:0c:c0:eb:b2:b8:d8:d8:ea:
                    59:bc:d8:bd:d6:a0:33:86:fb:69:7e:ca:61:7f:73:
                    72:99:ac:e4:1e:9c:39:eb:38:e1:1e:45:eb:fe:be:
                    16:08:8d:a1:ee:29:70:c8:e6:47:76:4a:8d:7e:c8:
                    f9:b0:d7:63:d0:f7:b1:0e:4b:0c:ad:78:17:40:c9:
                    ee:1b:ed:70:11:5c:62:84:7d:c6:b5:00:35:ff:bd:
                    e2:91:b4:90:73:9d:20:12:7a:26:7d:78:86:5b:3c:
                    0c:c4:12:b9:bd:f9:a4:7a:80:da:04:1b:8a:e7:ea:
                    f1:ae:d1:ae:42:55:53:a8:2b:92:ce:3c:51:18:13:
                    1a:f3:ec:2c:14:24:db:08:d0:b8:b8:68:af:10:d0:
                    f4:df:9c:22:9f:06:43:05:fa:6d:d8:8b:94:58:e6:
                    9d:72:9f:f4:5d:0c:76:2a:9a:44:bf:3f:77:86:c3:
                    4c:8a:dc:4b:25:6e:cb:3b:79:eb:ef:a7:44:8c:de:
                    b6:8a:ac:02:7c:64:30:f4:78:66:66:a7:92:87:92:
                    fb:47:9d:a8:77:54:42:9b:40:c8:17:6d:ad:bc:e4:
                    27:29:29:16:ea:9a:f7:37:9d:41:a2:bd:6b:7d:4e:
                    ee:d0:2b:d6:ce:92:40:dc:55:0c:2b:a7:f3:a7:ff:
                    03:e8:05:a2:7b:07:59:fc:cd:fa:83:3b:bf:b8:4c:
                    65:de:20:ed:15:96:c0:c3:34:ca:dd:68:fd:16:bf:
                    11:68:85:c1:25:88:9c:93:8a:37:12:1e:69:9e:b0:
                    13:20:2e:d1:fd:18:e1:6c:a3:39:0e:1c:a5:df:8d:
                    e7:20:6d:71:5d:33:68:28:86:3e:c6:80:1b:05:a7:
                    db:22:f6:6c:4a:99:ad:b7:c9:10:eb:ac:8f:b9:a3:
                    c3:49:14:fe:fc:fb:17:49:ad:39:9b:65:0b:f4:f6:
                    27:00:b5:95:64:70:de:9b:1a:1f:80:54:4e:8f:c0:
                    be:c0:04:7a:94:e0:d7:9f:f5:06:8b:ee:68:47:64:
                    29:52:74:2d:d7:db:b2:91:cb:26:ad:1c:25:c1:5a:
                    8a:da:f9:95:4b:56:4b:70:d2:0c:1f:ef:e7:e1:6f:
                    38:93:f3
                Exponent: 65537 (0x10001)
        X509v3 extensions:
            X509v3 Basic Constraints: 
                CA:FALSE
            X509v3 Subject Key Identifier: 
                A0:78:52:8D:DC:86:5D:FB:D3:8B:B2:5E:69:88:50:16:64:C1:8E:44
            X509v3 Authority Key Identifier: 
                keyid:35:D6:3C:4E:00:F2:9A:B4:9A:0D:4D:18:28:97:52:CA:6D:BD:11:74
                DirName:/CN=Easy-RSA-KMC CA
                serial:D6:DA:8F:0A:A2:60:B6:93

            X509v3 Extended Key Usage: 
                TLS Web Client Authentication
            X509v3 Key Usage: 
                Digital Signature
    Signature Algorithm: sha256WithRSAEncryption
         bc:a6:4e:00:31:de:22:91:92:e5:44:43:17:29:b2:2a:8f:3a:
         6c:b1:19:41:45:2d:8e:81:0f:c1:8b:d7:0c:92:a8:0e:16:84:
         f6:8b:c1:aa:46:42:3a:22:26:0a:54:26:f4:d1:76:58:6b:29:
         99:16:0f:c5:a8:be:cb:dc:ed:98:b3:72:89:b1:05:6e:b4:b0:
         15:e8:98:89:eb:45:4c:a1:a3:2f:82:48:85:3c:1b:e1:1c:53:
         e1:b1:f0:c4:02:28:65:63:32:81:52:69:9b:4f:e0:0b:a2:8a:
         81:9d:e4:54:26:85:de:2f:7a:ac:1f:84:d7:94:15:5c:fd:3e:
         78:4c:1b:4d:d9:78:6f:1c:d6:5d:c8:2d:19:33:6a:ef:d4:bf:
         3f:10:13:bc:10:67:9e:5d:a0:8b:29:35:2b:69:a3:08:99:4d:
         c7:39:7e:6e:14:32:28:3a:3c:7a:55:ba:44:8a:da:0a:7d:76:
         b9:f6:9e:37:49:a5:0d:b2:03:19:55:00:7d:f7:59:8a:9b:ef:
         67:24:a9:bb:0d:55:a7:25:bf:91:4b:55:a7:a1:eb:9f:49:6e:
         a0:01:d1:18:40:3f:f6:49:13:36:69:40:6a:85:87:7c:ee:59:
         d5:a8:00:82:70:8d:b9:ec:40:d9:40:69:c9:9e:83:1f:3a:55:
         ff:67:48:49:fb:b7:b1:59:a4:05:bf:4e:67:1a:7f:36:e5:80:
         37:67:6d:5f:c4:53:8c:04:43:1c:21:eb:98:2b:a6:c2:ee:15:
         c5:c7:58:92:ca:81:c4:53:64:05:62:be:57:92:98:3c:ad:8f:
         7d:53:49:80:dd:cb:8f:41:60:cf:8e:12:1c:54:db:d5:70:37:
         29:3a:1c:e7:c4:c7:82:33:1e:18:9e:ca:f4:97:a9:4f:d4:db:
         38:f1:be:40:3d:08:b6:13:b6:d4:1f:06:d2:b1:ce:c5:5e:65:
         b5:4e:de:e9:a5:93:e1:bd:b6:1b:0a:32:af:b9:4a:dd:20:7f:
         e0:0c:9e:82:e0:5e:b6:c6:2f:a2:21:0d:25:28:6b:96:6a:04:
         ea:2c:1c:a8:2a:e2:72:40:39:84:c4:2b:40:54:d2:4d:10:1c:
         0e:72:77:44:ff:58:e1:34:2b:65:e6:38:79:92:1e:22:04:e4:
         e1:13:87:35:3c:cb:ef:a3:43:0a:43:27:30:b9:4c:d7:51:fe:
         6b:81:08:1a:91:63:6f:c8:2c:93:13:31:e9:41:82:55:d1:08:
         8f:22:75:84:03:09:bd:3b:a7:26:f0:45:a3:ab:26:57:ab:e3:
         db:58:da:c1:07:ae:b2:5f:17:d2:78:ab:86:9f:9b:d8:b8:f7:
         fd:36:74:21:31:d9:62:dd
-----BEGIN CERTIFICATE-----
MIIFRTCCAy2gAwIBAgIBAjANBgkqhkiG9w0BAQsFADAaMRgwFgYDVQQDDA9FYXN5
LVJTQS1LTUMgQ0EwHhcNMTYwMzE1MTY0MTQ3WhcNMjYwMzEzMTY0MTQ3WjAUMRIw
EAYDVQQDDAlLbWNFbnRpdHkwggIiMA0GCSqGSIb3DQEBAQUAA4ICDwAwggIKAoIC
AQC4rLOaxwEJrCEAPH8EITB+4Nj2pzgr/AoxbeCjzzYxdTDsEHwDxPba8yykAjFL
OnNJr+U1cuKjLugveVu8BDB4zNVreIKOjcrFyb1oDIeT6ZyD5E25RoWPqoOJeMBL
iQUMwOuyuNjY6lm82L3WoDOG+2l+ymF/c3KZrOQenDnrOOEeRev+vhYIjaHuKXDI
5kd2So1+yPmw12PQ97EOSwyteBdAye4b7XARXGKEfca1ADX/veKRtJBznSASeiZ9
eIZbPAzEErm9+aR6gNoEG4rn6vGu0a5CVVOoK5LOPFEYExrz7CwUJNsI0Li4aK8Q
0PTfnCKfBkMF+m3Yi5RY5p1yn/RdDHYqmkS/P3eGw0yK3Eslbss7eevvp0SM3raK
rAJ8ZDD0eGZmp5KHkvtHnah3VEKbQMgXba285CcpKRbqmvc3nUGivWt9Tu7QK9bO
kkDcVQwrp/On/wPoBaJ7B1n8zfqDO7+4TGXeIO0VlsDDNMrdaP0WvxFohcEliJyT
ijcSHmmesBMgLtH9GOFsozkOHKXfjecgbXFdM2gohj7GgBsFp9si9mxKma23yRDr
rI+5o8NJFP78+xdJrTmbZQv09icAtZVkcN6bGh+AVE6PwL7ABHqU4Nef9QaL7mhH
ZClSdC3X27KRyyatHCXBWora+ZVLVktw0gwf7+fhbziT8wIDAQABo4GbMIGYMAkG
A1UdEwQCMAAwHQYDVR0OBBYEFKB4Uo3chl3704uyXmmIUBZkwY5EMEoGA1UdIwRD
MEGAFDXWPE4A8pq0mg1NGCiXUsptvRF0oR6kHDAaMRgwFgYDVQQDDA9FYXN5LVJT
QS1LTUMgQ0GCCQDW2o8KomC2kzATBgNVHSUEDDAKBggrBgEFBQcDAjALBgNVHQ8E
BAMCB4AwDQYJKoZIhvcNAQELBQADggIBALymTgAx3iKRkuVEQxcpsiqPOmyxGUFF
LY6BD8GL1wySqA4WhPaLwapGQjoiJgpUJvTRdlhrKZkWD8Wovsvc7ZizcomxBW60
sBXomInrRUyhoy+CSIU8G+EcU+Gx8MQCKGVjMoFSaZtP4AuiioGd5FQmhd4veqwf
hNeUFVz9PnhMG03ZeG8c1l3ILRkzau/Uvz8QE7wQZ55doIspNStpowiZTcc5fm4U
Mig6PHpVukSK2gp9drn2njdJpQ2yAxlVAH33WYqb72ckqbsNVaclv5FLVaeh659J
bqAB0RhAP/ZJEzZpQGqFh3zuWdWoAIJwjbnsQNlAacmegx86Vf9nSEn7t7FZpAW/
TmcafzblgDdnbV/EU4wEQxwh65grpsLuFcXHWJLKgcRTZAVivleSmDytj31TSYDd
y49BYM+OEhxU29VwNyk6HOfEx4IzHhieyvSXqU/U2zjxvkA9CLYTttQfBtKxzsVe
ZbVO3umlk+G9thsKMq+5St0gf+AMnoLgXrbGL6IhDSUoa5ZqBOosHKgq4nJAOYTE
K0BU0k0QHA5yd0T/WOE0K2XmOHmSHiIE5OEThzU8y++jQwpDJzC5TNdR/muBCBqR
Y2/ILJMTMelBglXRCI8idYQDCb07pybwRaOrJler49tY2sEHrrJfF9J4q4afm9i4
9/02dCEx2WLd
-----END CERTIFICATE-----
