Certificate:
    Data:
        Version: 3 (0x2)
        Serial Number: 1 (0x1)
    Signature Algorithm: sha256WithRSAEncryption
        Issuer: CN=Easy-RSA-KMC CA
        Validity
            Not Before: Mar 15 16:40:51 2016 GMT
            Not After : Mar 13 16:40:51 2026 GMT
        Subject: CN=KmcCore
        Subject Public Key Info:
            Public Key Algorithm: rsaEncryption
                Public-Key: (4096 bit)
                Modulus:
                    00:b5:e2:2d:29:85:b4:d5:c6:af:2f:c3:74:01:8d:
                    4f:56:e3:81:cb:a2:5d:c1:81:73:6d:93:77:ef:1c:
                    58:ea:e3:b8:71:56:34:9a:a2:d0:19:52:1d:e6:c5:
                    60:ca:36:0c:88:36:3b:93:33:a2:59:41:80:62:87:
                    11:8a:8d:e8:11:8a:05:56:5e:fc:53:fb:48:7d:7c:
                    47:e8:7c:0c:cb:59:bc:f8:42:d8:2d:88:1b:70:16:
                    e0:0c:ca:d8:e8:5d:67:89:28:29:54:cc:7a:a4:0f:
                    fe:69:31:cd:84:6d:c6:37:c9:64:44:af:20:61:2e:
                    b6:fc:ea:9e:f0:41:8a:73:bc:9a:c8:61:af:19:31:
                    bc:cb:0b:4a:58:2f:19:c7:21:c1:d8:85:15:ec:45:
                    2b:31:12:ef:f7:ed:5a:74:8a:89:2b:fa:d6:00:a6:
                    f3:21:d4:e2:f3:e7:fd:30:98:4e:bf:fe:53:ed:49:
                    f9:38:da:b8:c2:ce:0f:0c:3d:3d:d8:0f:ae:4e:94:
                    f2:9c:9f:15:8d:3c:32:83:73:b1:92:2a:13:cb:79:
                    b6:a2:cf:05:d0:b8:c3:15:08:49:d6:b9:30:f4:01:
                    e7:cb:19:d0:2d:9a:12:d1:c7:09:ca:55:f2:43:c7:
                    73:3c:51:a7:d4:32:3e:c9:e0:75:9a:97:8a:a8:f0:
                    84:14:5d:77:66:5e:59:c6:bc:cc:78:f7:d3:77:75:
                    e6:3a:95:6f:37:0e:33:2f:c8:9f:98:a9:04:b2:ba:
                    a9:1a:3f:28:05:5f:93:01:91:5a:89:14:3c:66:98:
                    38:e9:9b:fb:c2:fe:1a:ea:13:30:3f:1c:40:19:6d:
                    14:9e:88:ad:22:ee:91:eb:e9:40:9f:9c:66:f3:5f:
                    be:6f:b1:4f:5b:2d:57:fe:8c:42:3a:64:4e:cd:18:
                    cd:53:9b:ae:39:1e:e1:d4:90:7d:fe:59:54:b9:b7:
                    c5:ff:3a:d0:bd:a1:56:e4:92:5c:fd:12:2a:ba:ab:
                    ce:8b:19:92:5f:5c:b4:c5:c2:fa:5c:7d:d3:6e:3b:
                    73:df:67:98:d9:ce:90:d5:a7:f3:65:5f:c3:55:31:
                    e6:de:b8:64:c6:16:ba:09:3f:2a:69:20:93:ab:cf:
                    da:77:0a:9b:54:2d:2b:1b:04:f4:fe:37:56:a0:28:
                    5f:2c:78:fb:d3:fc:89:47:0e:d3:38:54:68:03:2c:
                    28:92:5b:93:24:6f:ac:b3:cf:91:27:2a:8b:c8:3c:
                    5e:2a:e0:55:ea:92:51:2c:bc:01:15:1a:dc:b9:86:
                    15:c6:ad:2d:ab:29:f1:1d:58:c4:9e:71:a5:e4:9f:
                    68:f6:77:95:bb:93:48:3b:79:bc:1e:64:19:4a:69:
                    81:05:87
                Exponent: 65537 (0x10001)
        X509v3 extensions:
            X509v3 Basic Constraints: 
                CA:FALSE
            X509v3 Subject Key Identifier: 
                E9:83:F0:7B:E1:EA:10:93:6C:EF:10:E4:50:AE:57:BD:7C:B3:BB:E8
            X509v3 Authority Key Identifier: 
                keyid:35:D6:3C:4E:00:F2:9A:B4:9A:0D:4D:18:28:97:52:CA:6D:BD:11:74
                DirName:/CN=Easy-RSA-KMC CA
                serial:D6:DA:8F:0A:A2:60:B6:93

            X509v3 Extended Key Usage: 
                TLS Web Server Authentication
            X509v3 Key Usage: 
                Digital Signature, Key Encipherment
    Signature Algorithm: sha256WithRSAEncryption
         8a:bb:3e:c2:54:5b:24:ad:bb:f7:69:f2:3c:f3:eb:3f:79:2e:
         2b:fb:b6:a1:0b:ba:d0:2b:1d:8b:ea:4f:b8:e7:cf:09:13:97:
         8e:d2:74:b6:55:d9:d5:71:04:84:d4:7c:b6:e6:e1:43:8e:26:
         5b:a5:cc:66:eb:ac:87:7f:37:e8:5b:0f:2f:12:09:5a:48:11:
         48:7c:07:be:9f:18:8a:81:62:0f:c6:ab:9d:47:98:18:d7:e8:
         5b:3e:f2:9f:ec:c4:18:2d:95:23:53:44:cf:22:17:c8:02:29:
         55:2a:f9:e7:d3:6d:ab:8c:ba:71:a0:a8:66:4c:89:a9:8a:d1:
         de:bd:48:ab:35:63:5a:de:e3:0d:b0:79:9d:61:29:27:3a:f0:
         43:4d:d0:4e:f5:2e:ab:28:f3:fe:d7:fa:5b:b9:11:6e:9d:68:
         9e:12:fe:9d:64:a9:c5:a4:1f:c0:84:06:7b:cf:f6:06:b5:87:
         66:b8:e9:f3:26:6a:4a:1c:27:ad:cd:07:bc:6c:fa:e1:7c:bd:
         26:42:70:fe:14:f4:f5:ec:33:26:4b:44:25:80:db:d9:38:a0:
         54:2c:44:b3:34:34:4d:1e:71:7f:ec:76:fe:69:4b:f8:ae:65:
         35:c6:bb:17:8e:d7:a4:0f:39:51:29:1a:4e:da:eb:a0:22:97:
         69:f7:1d:36:ea:3a:57:24:5d:ce:e6:65:88:b1:c8:71:fc:84:
         2e:71:d7:39:7f:81:31:8a:c6:b0:c6:4e:ba:42:3a:d5:a8:f7:
         61:49:c3:61:bc:f2:f4:9d:ab:bc:55:c4:30:d1:1d:67:1d:5e:
         16:4d:5e:b8:0d:3c:f0:fe:15:8b:bc:eb:75:e7:92:78:7c:25:
         2d:5c:ca:31:1a:f0:17:eb:3d:18:e6:59:1a:87:3d:4e:dc:17:
         f5:c5:db:41:ca:05:5f:28:67:a5:23:72:e8:1b:05:ff:04:29:
         c3:b2:1a:9a:de:a3:57:85:f0:53:38:01:86:89:b6:f9:78:76:
         f6:e6:39:8d:df:d4:9a:d2:32:0d:26:a2:36:f3:57:3c:29:02:
         c6:27:2a:75:88:9f:64:fb:39:0a:68:b6:cc:70:b7:77:ad:e7:
         cd:23:3e:27:5d:12:95:b2:26:e5:a9:1f:db:43:0b:66:0e:03:
         ae:a4:8a:d6:19:1a:d7:e2:45:c9:35:2a:4b:d2:c1:df:e7:5f:
         66:01:2d:e9:b7:b3:be:9b:24:a8:e6:33:72:c0:dc:d5:c1:d5:
         18:6b:16:36:b7:2b:48:bc:e9:4c:e4:b6:0a:f6:4d:35:05:a1:
         b1:6c:a4:ec:11:19:36:2a:84:7e:6a:60:d0:74:e1:13:31:c7:
         f1:35:a3:9d:1d:c6:e8:20
-----BEGIN CERTIFICATE-----
MIIFQzCCAyugAwIBAgIBATANBgkqhkiG9w0BAQsFADAaMRgwFgYDVQQDDA9FYXN5
LVJTQS1LTUMgQ0EwHhcNMTYwMzE1MTY0MDUxWhcNMjYwMzEzMTY0MDUxWjASMRAw
DgYDVQQDDAdLbWNDb3JlMIICIjANBgkqhkiG9w0BAQEFAAOCAg8AMIICCgKCAgEA
teItKYW01cavL8N0AY1PVuOBy6JdwYFzbZN37xxY6uO4cVY0mqLQGVId5sVgyjYM
iDY7kzOiWUGAYocRio3oEYoFVl78U/tIfXxH6HwMy1m8+ELYLYgbcBbgDMrY6F1n
iSgpVMx6pA/+aTHNhG3GN8lkRK8gYS62/Oqe8EGKc7yayGGvGTG8ywtKWC8ZxyHB
2IUV7EUrMRLv9+1adIqJK/rWAKbzIdTi8+f9MJhOv/5T7Un5ONq4ws4PDD092A+u
TpTynJ8VjTwyg3OxkioTy3m2os8F0LjDFQhJ1rkw9AHnyxnQLZoS0ccJylXyQ8dz
PFGn1DI+yeB1mpeKqPCEFF13Zl5ZxrzMePfTd3XmOpVvNw4zL8ifmKkEsrqpGj8o
BV+TAZFaiRQ8Zpg46Zv7wv4a6hMwPxxAGW0UnoitIu6R6+lAn5xm81++b7FPWy1X
/oxCOmROzRjNU5uuOR7h1JB9/llUubfF/zrQvaFW5JJc/RIquqvOixmSX1y0xcL6
XH3Tbjtz32eY2c6Q1afzZV/DVTHm3rhkxha6CT8qaSCTq8/adwqbVC0rGwT0/jdW
oChfLHj70/yJRw7TOFRoAywokluTJG+ss8+RJyqLyDxeKuBV6pJRLLwBFRrcuYYV
xq0tqynxHVjEnnGl5J9o9neVu5NIO3m8HmQZSmmBBYcCAwEAAaOBmzCBmDAJBgNV
HRMEAjAAMB0GA1UdDgQWBBTpg/B74eoQk2zvEORQrle9fLO76DBKBgNVHSMEQzBB
gBQ11jxOAPKatJoNTRgol1LKbb0RdKEepBwwGjEYMBYGA1UEAwwPRWFzeS1SU0Et
S01DIENBggkA1tqPCqJgtpMwEwYDVR0lBAwwCgYIKwYBBQUHAwEwCwYDVR0PBAQD
AgWgMA0GCSqGSIb3DQEBCwUAA4ICAQCKuz7CVFskrbv3afI88+s/eS4r+7ahC7rQ
Kx2L6k+4588JE5eO0nS2VdnVcQSE1Hy25uFDjiZbpcxm66yHfzfoWw8vEglaSBFI
fAe+nxiKgWIPxqudR5gY1+hbPvKf7MQYLZUjU0TPIhfIAilVKvnn022rjLpxoKhm
TImpitHevUirNWNa3uMNsHmdYSknOvBDTdBO9S6rKPP+1/pbuRFunWieEv6dZKnF
pB/AhAZ7z/YGtYdmuOnzJmpKHCetzQe8bPrhfL0mQnD+FPT17DMmS0QlgNvZOKBU
LESzNDRNHnF/7Hb+aUv4rmU1xrsXjtekDzlRKRpO2uugIpdp9x026jpXJF3O5mWI
schx/IQucdc5f4Exisawxk66QjrVqPdhScNhvPL0nau8VcQw0R1nHV4WTV64DTzw
/hWLvOt155J4fCUtXMoxGvAX6z0Y5lkahz1O3Bf1xdtBygVfKGelI3LoGwX/BCnD
shqa3qNXhfBTOAGGibb5eHb25jmN39Sa0jINJqI281c8KQLGJyp1iJ9k+zkKaLbM
cLd3refNIz4nXRKVsiblqR/bQwtmDgOupIrWGRrX4kXJNSpL0sHf519mAS3pt7O+
mySo5jNywNzVwdUYaxY2tytIvOlM5LYK9k01BaGxbKTsERk2KoR+amDQdOETMcfx
NaOdHcboIA==
-----END CERTIFICATE-----
