Certificate:
    Data:
        Version: 3 (0x2)
        Serial Number: 15266445314278061558 (0xd3dd4f20d47875f6)
    Signature Algorithm: sha1WithRSAEncryption
        Issuer: C=IT, ST=Lazio, O=Internet Widgits Pty Ltd, CN=ca
        Validity
            Not Before: Mar 14 21:37:46 2016 GMT
            Not After : Mar 14 21:37:46 2019 GMT
        Subject: C=IT, ST=Lazio, O=Internet Widgits Pty Ltd, CN=ca
        Subject Public Key Info:
            Public Key Algorithm: rsaEncryption
                Public-Key: (2048 bit)
                Modulus:
                    00:db:0d:be:f5:ea:b0:49:b5:4e:a8:e3:57:2b:3f:
                    c8:2f:70:b6:87:ba:83:f3:da:00:d5:b9:3a:01:f9:
                    81:b6:c1:5d:8f:df:d9:f4:63:3c:0d:4c:f7:01:55:
                    03:c4:06:63:71:83:15:3f:1a:33:02:ba:69:0f:38:
                    4e:ab:ec:ef:23:28:5b:89:76:86:d6:da:f8:50:1f:
                    d1:13:1e:e2:ca:83:3a:de:45:ea:21:3a:49:7a:c5:
                    22:56:4c:04:7c:67:15:ea:c8:63:fe:d0:0c:b5:46:
                    ae:42:c4:06:03:2a:6a:8d:40:31:e3:ee:2a:b1:56:
                    ff:32:3f:3c:e5:fd:ec:8a:db:bc:51:cf:a4:ac:ab:
                    4e:7a:4f:3f:d3:27:33:66:2f:37:ce:9f:f8:8c:02:
                    98:8f:19:32:2a:d2:57:54:fa:a4:87:49:56:2c:67:
                    1b:d0:2a:d2:d9:a3:a2:d5:9f:17:f6:fe:4c:e5:0e:
                    dc:69:f5:dc:09:3a:43:b8:1d:0f:64:77:a2:cb:0d:
                    48:a2:91:78:56:1f:c8:62:61:45:67:48:22:f3:5f:
                    89:1f:1f:b5:6b:7c:04:13:47:42:d2:d8:05:50:5e:
                    8b:c9:46:29:ff:58:aa:c2:3d:85:a2:3a:c9:01:e1:
                    08:c1:ce:a6:f1:89:04:85:5b:6e:80:fe:5f:b2:c6:
                    ef:a1
                Exponent: 65537 (0x10001)
        X509v3 extensions:
            X509v3 Subject Key Identifier: 
                C3:D1:EA:13:08:F1:6F:ED:AA:16:0D:C4:A3:4E:82:06:FA:A7:DE:A7
            X509v3 Authority Key Identifier: 
                keyid:C3:D1:EA:13:08:F1:6F:ED:AA:16:0D:C4:A3:4E:82:06:FA:A7:DE:A7

            X509v3 Basic Constraints: 
                CA:TRUE
    Signature Algorithm: sha1WithRSAEncryption
         4f:e7:ce:7b:fa:df:db:94:35:4b:e6:f0:bb:8c:a9:2c:fe:db:
         c2:fe:bb:10:e2:5d:cb:19:33:a8:bb:53:8b:7e:9a:a0:bc:57:
         9e:64:53:b7:32:fd:74:d1:6b:fa:ea:6a:45:6e:97:cd:cb:1b:
         45:5c:fa:41:9e:3e:f1:7d:2c:b1:b4:bd:8b:c2:cd:5c:b5:98:
         f2:e0:4a:e3:66:12:8d:a1:ac:c2:8b:7a:3c:fb:65:bf:c4:fc:
         16:3b:b1:a5:66:63:bf:09:c2:a9:f9:57:a7:e0:18:e8:02:9b:
         1e:17:c6:d0:6b:5b:b2:25:75:65:8e:46:21:ac:55:73:a6:d8:
         31:07:4f:3b:9c:63:1b:3f:39:bd:67:c0:98:d6:7e:a1:f1:df:
         62:ae:e2:72:ec:b4:9e:9d:70:92:d3:1d:c7:6a:2f:4f:2d:39:
         c0:fd:b8:96:44:34:ea:de:c1:08:08:b5:d6:94:18:57:49:30:
         76:48:d5:84:c2:dd:cf:45:9b:a6:6e:04:c2:52:01:7b:74:e4:
         05:91:1b:99:e9:ff:76:91:6d:9f:f8:51:e5:1b:a9:7e:7e:0d:
         42:5e:c5:30:ff:aa:07:6c:31:04:fa:05:ec:d0:05:33:ad:ce:
         9a:9d:77:36:48:18:d6:c7:04:de:6d:e2:9b:71:70:04:19:6d:
         e4:12:6a:e1
-----BEGIN CERTIFICATE-----
MIIDbTCCAlWgAwIBAgIJANPdTyDUeHX2MA0GCSqGSIb3DQEBBQUAME0xCzAJBgNV
BAYTAklUMQ4wDAYDVQQIDAVMYXppbzEhMB8GA1UECgwYSW50ZXJuZXQgV2lkZ2l0
cyBQdHkgTHRkMQswCQYDVQQDDAJjYTAeFw0xNjAzMTQyMTM3NDZaFw0xOTAzMTQy
MTM3NDZaME0xCzAJBgNVBAYTAklUMQ4wDAYDVQQIDAVMYXppbzEhMB8GA1UECgwY
SW50ZXJuZXQgV2lkZ2l0cyBQdHkgTHRkMQswCQYDVQQDDAJjYTCCASIwDQYJKoZI
hvcNAQEBBQADggEPADCCAQoCggEBANsNvvXqsEm1TqjjVys/yC9wtoe6g/PaANW5
OgH5gbbBXY/f2fRjPA1M9wFVA8QGY3GDFT8aMwK6aQ84Tqvs7yMoW4l2htba+FAf
0RMe4sqDOt5F6iE6SXrFIlZMBHxnFerIY/7QDLVGrkLEBgMqao1AMePuKrFW/zI/
POX97IrbvFHPpKyrTnpPP9MnM2YvN86f+IwCmI8ZMirSV1T6pIdJVixnG9Aq0tmj
otWfF/b+TOUO3Gn13Ak6Q7gdD2R3ossNSKKReFYfyGJhRWdIIvNfiR8ftWt8BBNH
QtLYBVBei8lGKf9YqsI9haI6yQHhCMHOpvGJBIVbboD+X7LG76ECAwEAAaNQME4w
HQYDVR0OBBYEFMPR6hMI8W/tqhYNxKNOggb6p96nMB8GA1UdIwQYMBaAFMPR6hMI
8W/tqhYNxKNOggb6p96nMAwGA1UdEwQFMAMBAf8wDQYJKoZIhvcNAQEFBQADggEB
AE/nznv639uUNUvm8LuMqSz+28L+uxDiXcsZM6i7U4t+mqC8V55kU7cy/XTRa/rq
akVul83LG0Vc+kGePvF9LLG0vYvCzVy1mPLgSuNmEo2hrMKLejz7Zb/E/BY7saVm
Y78Jwqn5V6fgGOgCmx4XxtBrW7IldWWORiGsVXOm2DEHTzucYxs/Ob1nwJjWfqHx
32Ku4nLstJ6dcJLTHcdqL08tOcD9uJZENOrewQgItdaUGFdJMHZI1YTC3c9Fm6Zu
BMJSAXt05AWRG5np/3aRbZ/4UeUbqX5+DUJexTD/qgdsMQT6BezQBTOtzpqddzZI
GNbHBN5t4ptxcAQZbeQSauE=
-----END CERTIFICATE-----
