Certificate:
    Data:
        Version: 3 (0x2)
        Serial Number: 16137708414789930101 (0xdff4a84d5062cc75)
    Signature Algorithm: sha256WithRSAEncryption
        Issuer: C=IT, ST=Lazio, O=Internet Widgits Pty Ltd, CN=pcpiuma
        Validity
            Not Before: Feb 25 09:39:10 2016 GMT
            Not After : Feb 24 09:39:10 2019 GMT
        Subject: C=IT, ST=Lazio, O=Internet Widgits Pty Ltd, CN=pcpiuma
        Subject Public Key Info:
            Public Key Algorithm: rsaEncryption
                Public-Key: (2048 bit)
                Modulus:
                    00:e1:f8:4d:e0:be:fa:fc:f1:a7:a5:d0:c9:e1:1b:
                    84:1a:77:53:d3:c8:8b:b5:bc:ed:b7:80:0f:89:46:
                    96:c1:a6:74:d6:fd:74:09:c5:62:4e:72:cd:32:6e:
                    34:e2:b0:1f:ff:ba:82:ff:4f:22:6b:c4:a5:2d:bf:
                    c9:dc:9d:7d:b3:02:f9:e9:3c:d0:46:c6:c8:32:56:
                    c6:25:a0:cb:0d:7a:c6:79:9e:4a:d7:f2:fd:52:64:
                    80:95:e6:07:7e:09:83:ca:b4:20:97:0a:08:1e:cd:
                    b1:cd:ab:d9:23:00:48:11:69:3b:e8:b6:90:7f:af:
                    eb:f7:66:e9:c0:9d:9b:75:fb:41:2e:ed:77:84:e4:
                    bd:b5:9d:9d:97:56:8c:d3:ab:a0:c5:cd:9b:22:d3:
                    64:e6:7b:36:d3:a3:9f:b7:86:8c:a6:da:1c:ea:47:
                    d5:e4:f5:a6:ff:50:56:ff:a9:3b:58:38:ee:3c:e8:
                    6d:f2:85:0c:f1:38:d9:e7:c5:c1:91:27:5a:2a:21:
                    81:09:9a:40:2b:79:6c:d9:ed:c0:4f:95:7d:be:b1:
                    e4:47:ce:ce:9a:8f:c7:99:30:1a:d8:24:00:42:ee:
                    0b:a5:f6:33:3f:dc:7d:38:ed:51:2b:30:5b:b7:71:
                    8c:71:57:75:31:73:a6:ef:3d:f1:c3:c0:65:6e:e7:
                    60:75
                Exponent: 65537 (0x10001)
        X509v3 extensions:
            X509v3 Subject Key Identifier: 
                49:F4:3C:4C:FB:2C:D4:B3:93:CA:15:1B:F5:6B:F9:F9:C7:FD:70:EF
            X509v3 Authority Key Identifier: 
                keyid:49:F4:3C:4C:FB:2C:D4:B3:93:CA:15:1B:F5:6B:F9:F9:C7:FD:70:EF

            X509v3 Basic Constraints: 
                CA:TRUE
    Signature Algorithm: sha256WithRSAEncryption
         27:55:cf:af:16:24:0e:a3:e7:f1:68:53:65:46:b0:77:27:00:
         20:18:6b:35:c0:1f:f1:cd:4f:70:81:06:26:06:29:28:e3:06:
         46:13:25:fb:e5:e3:3c:d9:06:f5:aa:94:eb:d9:70:6b:c0:8f:
         d8:43:c2:bc:c2:6e:45:c1:6a:2f:a9:11:9e:f5:0d:fb:11:e9:
         c6:91:1e:cb:9f:10:af:1c:8c:83:16:9e:09:b7:39:f8:cd:a4:
         2a:62:8e:3a:73:04:89:26:b0:55:c5:6a:fb:85:95:46:ac:8b:
         f3:33:9f:1f:ad:af:4f:1f:eb:6e:07:07:5d:f5:eb:e0:5c:91:
         59:52:67:85:df:7f:74:29:ba:c2:4d:a8:c9:d4:ae:1e:1b:bd:
         61:88:9b:42:04:45:a2:2d:39:cc:2e:7d:e8:62:36:ce:b3:4f:
         f9:e1:e9:0c:ad:9c:63:dc:c9:cf:3c:9c:49:6c:38:65:6d:8e:
         63:c9:aa:71:b6:8a:1d:32:b0:81:7f:f8:cf:52:9b:60:ed:9f:
         61:85:2e:83:49:c1:d7:ce:e4:79:1e:a8:c4:c8:d7:41:ca:f4:
         5d:35:d3:a7:c7:6e:80:97:87:71:f7:9e:5d:aa:36:09:76:57:
         be:e7:d0:4b:38:1f:57:da:d8:94:1c:46:0d:08:71:db:93:df:
         2e:09:76:6c
-----BEGIN CERTIFICATE-----
MIIDdzCCAl+gAwIBAgIJAN/0qE1QYsx1MA0GCSqGSIb3DQEBCwUAMFIxCzAJBgNV
BAYTAklUMQ4wDAYDVQQIDAVMYXppbzEhMB8GA1UECgwYSW50ZXJuZXQgV2lkZ2l0
cyBQdHkgTHRkMRAwDgYDVQQDDAdwY3BpdW1hMB4XDTE2MDIyNTA5MzkxMFoXDTE5
MDIyNDA5MzkxMFowUjELMAkGA1UEBhMCSVQxDjAMBgNVBAgMBUxhemlvMSEwHwYD
VQQKDBhJbnRlcm5ldCBXaWRnaXRzIFB0eSBMdGQxEDAOBgNVBAMMB3BjcGl1bWEw
ggEiMA0GCSqGSIb3DQEBAQUAA4IBDwAwggEKAoIBAQDh+E3gvvr88ael0MnhG4Qa
d1PTyIu1vO23gA+JRpbBpnTW/XQJxWJOcs0ybjTisB//uoL/TyJrxKUtv8ncnX2z
AvnpPNBGxsgyVsYloMsNesZ5nkrX8v1SZICV5gd+CYPKtCCXCggezbHNq9kjAEgR
aTvotpB/r+v3ZunAnZt1+0Eu7XeE5L21nZ2XVozTq6DFzZsi02TmezbTo5+3hoym
2hzqR9Xk9ab/UFb/qTtYOO486G3yhQzxONnnxcGRJ1oqIYEJmkAreWzZ7cBPlX2+
seRHzs6aj8eZMBrYJABC7gul9jM/3H047VErMFu3cYxxV3Uxc6bvPfHDwGVu52B1
AgMBAAGjUDBOMB0GA1UdDgQWBBRJ9DxM+yzUs5PKFRv1a/n5x/1w7zAfBgNVHSME
GDAWgBRJ9DxM+yzUs5PKFRv1a/n5x/1w7zAMBgNVHRMEBTADAQH/MA0GCSqGSIb3
DQEBCwUAA4IBAQAnVc+vFiQOo+fxaFNlRrB3JwAgGGs1wB/xzU9wgQYmBiko4wZG
EyX75eM82Qb1qpTr2XBrwI/YQ8K8wm5FwWovqRGe9Q37EenGkR7LnxCvHIyDFp4J
tzn4zaQqYo46cwSJJrBVxWr7hZVGrIvzM58fra9PH+tuBwdd9evgXJFZUmeF3390
KbrCTajJ1K4eG71hiJtCBEWiLTnMLn3oYjbOs0/54ekMrZxj3MnPPJxJbDhlbY5j
yapxtoodMrCBf/jPUptg7Z9hhS6DScHXzuR5HqjEyNdByvRdNdOnx26Al4dx955d
qjYJdle+59BLOB9X2tiUHEYNCHHbk98uCXZs
-----END CERTIFICATE-----
