Certificate:
    Data:
        Version: 3 (0x2)
        Serial Number: 17969182891478327787 (0xf95f5ca28e97a1eb)
    Signature Algorithm: sha256WithRSAEncryption
        Issuer: C=IT, ST=Lazio, O=Internet Widgits Pty Ltd, CN=ca
        Validity
            Not Before: Mar 11 09:58:38 2016 GMT
            Not After : Mar 11 09:58:38 2019 GMT
        Subject: C=IT, ST=Lazio, O=Internet Widgits Pty Ltd, CN=ca
        Subject Public Key Info:
            Public Key Algorithm: rsaEncryption
                Public-Key: (2048 bit)
                Modulus:
                    00:ae:70:ef:3e:8f:6c:e3:95:39:04:ca:e8:bc:d9:
                    d1:39:e6:eb:2b:40:e1:fd:31:e8:a7:52:08:0a:20:
                    0b:d2:64:2e:92:1c:b3:89:6a:a3:ee:bd:0e:b7:3d:
                    4e:15:2d:70:25:4e:36:bb:8d:11:87:85:55:1a:3d:
                    65:1a:71:54:88:1f:b8:85:8c:ba:50:75:ee:2a:d2:
                    1d:46:fd:6d:b2:3c:88:40:12:9c:1a:8e:c0:40:70:
                    ab:1e:3f:50:53:ec:31:2d:e7:73:c3:10:d4:e2:b6:
                    6a:fd:89:ed:51:3b:a1:13:fc:45:3b:47:c0:14:ed:
                    e4:fa:f5:00:23:41:71:7b:ac:e5:93:b8:cf:ba:31:
                    b9:81:1e:48:84:58:8f:a8:c0:be:a3:8c:6e:61:c5:
                    47:12:5f:cd:97:d3:64:5e:e7:c7:8b:d6:cc:59:de:
                    ef:07:ec:50:a6:2a:fa:9f:ed:b9:c4:65:14:19:b9:
                    a7:5d:70:54:6b:9f:57:a6:64:77:aa:d5:36:d4:b2:
                    4a:1e:1a:55:44:c6:c6:89:83:b1:c5:6e:4b:13:82:
                    2b:0b:84:89:43:84:2a:60:9b:c2:af:5d:ea:9f:1a:
                    d9:a0:a0:cd:fa:a1:d8:1a:79:b4:b5:d5:bd:fe:0a:
                    c7:ed:6e:06:03:5b:1a:35:5e:d6:be:68:f0:3f:ec:
                    ea:31
                Exponent: 65537 (0x10001)
        X509v3 extensions:
            X509v3 Subject Key Identifier: 
                B2:FA:8C:E6:CB:78:89:C4:F4:D9:74:BF:24:38:0D:1D:06:30:C8:E9
            X509v3 Authority Key Identifier: 
                keyid:B2:FA:8C:E6:CB:78:89:C4:F4:D9:74:BF:24:38:0D:1D:06:30:C8:E9

            X509v3 Basic Constraints: 
                CA:TRUE
    Signature Algorithm: sha256WithRSAEncryption
         51:4d:5f:f5:8e:b2:03:1a:59:c5:db:79:c3:79:b5:66:d5:91:
         33:54:e3:00:9f:66:ba:7f:ba:a6:a5:ff:f3:7e:79:f4:aa:a3:
         2f:46:14:1e:a0:85:43:fa:b5:e0:db:d3:91:15:55:d4:97:e2:
         d7:4f:2b:34:89:86:a4:fe:a5:95:b7:85:2d:8e:88:8d:53:15:
         5a:6e:d7:aa:1c:01:e1:05:12:82:9e:67:30:b5:67:3f:bd:ee:
         98:b4:b0:c6:2a:6a:c2:eb:3d:08:cc:00:cc:8c:29:5f:2d:38:
         ce:97:97:b6:11:22:50:c7:43:21:8a:a5:06:ef:f8:57:2f:32:
         b4:df:19:a4:17:d5:66:93:11:25:32:c7:98:d9:07:a1:58:ac:
         5f:eb:8d:d7:2e:79:22:8c:9c:ec:95:9d:36:aa:f3:d6:be:22:
         b0:82:84:1a:f1:86:e7:d4:80:df:52:81:17:9b:36:a6:3a:d7:
         93:50:53:ef:7e:26:fd:c0:d5:17:0f:b3:e4:ee:80:60:a5:1b:
         07:52:42:ab:6c:3b:95:e8:59:bf:a2:a0:d3:4c:13:c4:e7:45:
         db:f5:f6:c1:10:ef:24:20:01:c6:34:4d:1a:20:23:36:01:aa:
         89:16:e6:77:a8:b2:7e:db:ff:67:41:45:74:2c:48:87:2b:37:
         fc:a0:84:4e
-----BEGIN CERTIFICATE-----
MIIDbTCCAlWgAwIBAgIJAPlfXKKOl6HrMA0GCSqGSIb3DQEBCwUAME0xCzAJBgNV
BAYTAklUMQ4wDAYDVQQIDAVMYXppbzEhMB8GA1UECgwYSW50ZXJuZXQgV2lkZ2l0
cyBQdHkgTHRkMQswCQYDVQQDDAJjYTAeFw0xNjAzMTEwOTU4MzhaFw0xOTAzMTEw
OTU4MzhaME0xCzAJBgNVBAYTAklUMQ4wDAYDVQQIDAVMYXppbzEhMB8GA1UECgwY
SW50ZXJuZXQgV2lkZ2l0cyBQdHkgTHRkMQswCQYDVQQDDAJjYTCCASIwDQYJKoZI
hvcNAQEBBQADggEPADCCAQoCggEBAK5w7z6PbOOVOQTK6LzZ0Tnm6ytA4f0x6KdS
CAogC9JkLpIcs4lqo+69Drc9ThUtcCVONruNEYeFVRo9ZRpxVIgfuIWMulB17irS
HUb9bbI8iEASnBqOwEBwqx4/UFPsMS3nc8MQ1OK2av2J7VE7oRP8RTtHwBTt5Pr1
ACNBcXus5ZO4z7oxuYEeSIRYj6jAvqOMbmHFRxJfzZfTZF7nx4vWzFne7wfsUKYq
+p/tucRlFBm5p11wVGufV6Zkd6rVNtSySh4aVUTGxomDscVuSxOCKwuEiUOEKmCb
wq9d6p8a2aCgzfqh2Bp5tLXVvf4Kx+1uBgNbGjVe1r5o8D/s6jECAwEAAaNQME4w
HQYDVR0OBBYEFLL6jObLeInE9Nl0vyQ4DR0GMMjpMB8GA1UdIwQYMBaAFLL6jObL
eInE9Nl0vyQ4DR0GMMjpMAwGA1UdEwQFMAMBAf8wDQYJKoZIhvcNAQELBQADggEB
AFFNX/WOsgMaWcXbecN5tWbVkTNU4wCfZrp/uqal//N+efSqoy9GFB6ghUP6teDb
05EVVdSX4tdPKzSJhqT+pZW3hS2OiI1TFVpu16ocAeEFEoKeZzC1Zz+97pi0sMYq
asLrPQjMAMyMKV8tOM6Xl7YRIlDHQyGKpQbv+FcvMrTfGaQX1WaTESUyx5jZB6FY
rF/rjdcueSKMnOyVnTaq89a+IrCChBrxhufUgN9SgRebNqY615NQU+9+Jv3A1RcP
s+TugGClGwdSQqtsO5XoWb+ioNNME8TnRdv19sEQ7yQgAcY0TRogIzYBqokW5neo
sn7b/2dBRXQsSIcrN/yghE4=
-----END CERTIFICATE-----
