Certificate:
    Data:
        Version: 3 (0x2)
        Serial Number: 17969182891478327789 (0xf95f5ca28e97a1ed)
    Signature Algorithm: sha256WithRSAEncryption
        Issuer: C=IT, ST=Lazio, O=Internet Widgits Pty Ltd, CN=ca
        Validity
            Not Before: Mar 11 10:00:16 2016 GMT
            Not After : Mar 11 10:00:16 2017 GMT
        Subject: C=IT, ST=Lazio, L=Rome, O=Internet Widgits Pty Ltd, CN=kmc
        Subject Public Key Info:
            Public Key Algorithm: rsaEncryption
                Public-Key: (2048 bit)
                Modulus:
                    00:a6:00:cf:f5:e5:80:18:cb:02:25:f7:eb:60:f6:
                    24:c8:2e:d4:11:1f:7a:84:f6:46:14:2b:7a:a2:27:
                    2e:dd:8f:47:40:69:f4:66:f1:eb:ea:f9:99:df:57:
                    f9:57:7b:71:20:c5:bf:09:5a:97:63:35:4d:27:1b:
                    dc:c1:0f:10:c6:15:39:c7:47:83:88:78:29:f2:80:
                    b5:fc:93:4c:be:2a:ea:80:0c:2b:23:5b:22:c3:d3:
                    40:51:6f:85:d9:dd:a5:43:93:1c:c8:cd:6b:ba:f7:
                    af:62:8b:92:36:a9:c4:01:83:a3:d1:b6:a4:17:a4:
                    04:d7:51:b1:91:a9:e1:31:e6:19:9a:de:c2:ac:17:
                    6b:1d:f9:f9:12:f8:8a:15:eb:93:c9:b0:c6:2b:6c:
                    b8:6b:8f:51:80:7f:a2:55:78:a4:28:ff:b1:3c:9c:
                    2a:20:cd:bb:e9:0c:0a:3b:f0:d6:80:0c:44:73:ea:
                    8d:54:61:09:1f:9b:c5:8c:28:8e:b0:68:d6:c9:85:
                    5e:99:a5:a4:23:1a:e7:08:cf:ae:9e:ff:0a:ca:b3:
                    87:32:5a:69:02:07:37:57:20:1d:73:67:b1:75:66:
                    6f:41:03:ec:d5:65:39:e4:df:a4:51:9b:86:a2:75:
                    46:70:b1:b8:6a:09:76:dd:e7:dd:00:5f:bd:3a:ff:
                    80:b5
                Exponent: 65537 (0x10001)
        X509v3 extensions:
            X509v3 Basic Constraints: 
                CA:FALSE
            Netscape Comment: 
                OpenSSL Generated Certificate
            X509v3 Subject Key Identifier: 
                73:E4:74:2F:24:7F:35:76:21:3F:EA:F9:B1:FD:4B:DA:6E:64:29:49
            X509v3 Authority Key Identifier: 
                keyid:B2:FA:8C:E6:CB:78:89:C4:F4:D9:74:BF:24:38:0D:1D:06:30:C8:E9

    Signature Algorithm: sha256WithRSAEncryption
         3d:54:f6:83:25:f0:1b:b6:da:37:83:38:f4:dd:66:05:6a:78:
         63:0a:f0:f2:70:92:54:38:7c:41:95:83:e6:bc:81:09:1f:f2:
         bb:81:9f:f3:b2:88:4a:07:44:84:32:ce:ea:0c:fd:de:08:55:
         e5:22:21:95:46:9f:9a:98:6f:77:b4:c1:82:81:11:20:d2:69:
         f2:88:8a:db:59:8f:fc:68:48:2d:e6:1f:72:62:7d:cf:19:1a:
         b4:bd:cb:2c:8a:9c:7d:61:2f:ae:3e:93:41:ad:88:be:a2:dd:
         59:ee:4b:1c:11:43:de:f6:a8:75:0a:9e:57:f6:e3:76:fc:53:
         5e:fa:72:12:ab:23:2d:65:f9:a2:77:15:ac:70:df:f8:3c:c0:
         f8:bf:6e:e7:43:e6:17:8d:15:94:0a:9a:c4:23:c0:d6:d3:89:
         f0:50:ea:f1:27:48:22:86:8a:5d:fa:76:17:b4:29:3a:27:96:
         4e:b1:9a:09:88:c4:78:b9:b7:f4:53:13:ab:0f:fd:47:e2:66:
         47:38:99:ed:1d:92:21:2d:57:1e:b5:9a:89:83:7f:5b:9e:ae:
         39:8c:25:8f:af:46:e3:cd:ba:ce:0f:80:c5:f6:6d:51:4f:6e:
         f6:49:43:53:83:8f:cb:bf:64:7a:a6:68:63:84:21:35:6b:ca:
         17:29:94:bb
-----BEGIN CERTIFICATE-----
MIIDqDCCApCgAwIBAgIJAPlfXKKOl6HtMA0GCSqGSIb3DQEBCwUAME0xCzAJBgNV
BAYTAklUMQ4wDAYDVQQIDAVMYXppbzEhMB8GA1UECgwYSW50ZXJuZXQgV2lkZ2l0
cyBQdHkgTHRkMQswCQYDVQQDDAJjYTAeFw0xNjAzMTExMDAwMTZaFw0xNzAzMTEx
MDAwMTZaMF0xCzAJBgNVBAYTAklUMQ4wDAYDVQQIDAVMYXppbzENMAsGA1UEBwwE
Um9tZTEhMB8GA1UECgwYSW50ZXJuZXQgV2lkZ2l0cyBQdHkgTHRkMQwwCgYDVQQD
DANrbWMwggEiMA0GCSqGSIb3DQEBAQUAA4IBDwAwggEKAoIBAQCmAM/15YAYywIl
9+tg9iTILtQRH3qE9kYUK3qiJy7dj0dAafRm8evq+ZnfV/lXe3Egxb8JWpdjNU0n
G9zBDxDGFTnHR4OIeCnygLX8k0y+KuqADCsjWyLD00BRb4XZ3aVDkxzIzWu6969i
i5I2qcQBg6PRtqQXpATXUbGRqeEx5hma3sKsF2sd+fkS+IoV65PJsMYrbLhrj1GA
f6JVeKQo/7E8nCogzbvpDAo78NaADERz6o1UYQkfm8WMKI6waNbJhV6ZpaQjGucI
z66e/wrKs4cyWmkCBzdXIB1zZ7F1Zm9BA+zVZTnk36RRm4aidUZwsbhqCXbd590A
X706/4C1AgMBAAGjezB5MAkGA1UdEwQCMAAwLAYJYIZIAYb4QgENBB8WHU9wZW5T
U0wgR2VuZXJhdGVkIENlcnRpZmljYXRlMB0GA1UdDgQWBBRz5HQvJH81diE/6vmx
/UvabmQpSTAfBgNVHSMEGDAWgBSy+ozmy3iJxPTZdL8kOA0dBjDI6TANBgkqhkiG
9w0BAQsFAAOCAQEAPVT2gyXwG7baN4M49N1mBWp4Ywrw8nCSVDh8QZWD5ryBCR/y
u4Gf87KISgdEhDLO6gz93ghV5SIhlUafmphvd7TBgoERINJp8oiK21mP/GhILeYf
cmJ9zxkatL3LLIqcfWEvrj6TQa2IvqLdWe5LHBFD3vaodQqeV/bjdvxTXvpyEqsj
LWX5oncVrHDf+DzA+L9u50PmF40VlAqaxCPA1tOJ8FDq8SdIIoaKXfp2F7QpOieW
TrGaCYjEeLm39FMTqw/9R+JmRziZ7R2SIS1XHrWaiYN/W56uOYwlj69G4826zg+A
xfZtUU9u9klDU4OPy79keqZoY4QhNWvKFymUuw==
-----END CERTIFICATE-----
