Certificate:
    Data:
        Version: 3 (0x2)
        Serial Number: 15266445314278061559 (0xd3dd4f20d47875f7)
    Signature Algorithm: sha1WithRSAEncryption
        Issuer: C=IT, ST=Lazio, O=Internet Widgits Pty Ltd, CN=ca
        Validity
            Not Before: Mar 14 21:38:20 2016 GMT
            Not After : Mar 14 21:38:20 2017 GMT
        Subject: C=IT, ST=Lazio, L=Rome, O=Internet Widgits Pty Ltd, CN=kmc
        Subject Public Key Info:
            Public Key Algorithm: rsaEncryption
                Public-Key: (2048 bit)
                Modulus:
                    00:ba:7e:a7:99:6a:ec:16:06:88:7d:41:18:94:f9:
                    f6:7b:8a:89:a1:37:f2:f3:c1:3a:0a:d9:40:06:ea:
                    05:fa:d4:84:14:75:6e:87:e8:98:8b:73:83:fc:7b:
                    95:14:59:da:20:64:24:87:fa:cf:95:50:b9:a2:35:
                    87:db:4a:3d:d9:96:e3:8d:55:4b:d4:e3:f9:e0:f9:
                    21:37:3d:6b:da:58:5c:b4:ca:ef:e3:51:eb:e2:34:
                    bb:6d:30:14:f6:cf:f4:ef:09:13:4a:87:1d:71:e1:
                    43:46:98:93:77:e9:fb:3d:be:c6:9e:69:33:2c:60:
                    9c:c8:de:0a:40:a1:51:9f:c0:ca:68:86:f1:cb:61:
                    11:18:c4:fe:54:f8:b1:30:6a:d0:f1:c3:3c:32:59:
                    ab:fc:2f:da:48:6d:f5:bf:f2:38:eb:c2:bf:c0:70:
                    4e:59:fe:db:0f:fc:fa:6f:56:58:55:f1:ba:aa:22:
                    46:df:2d:3e:64:33:0c:1f:06:d7:6e:2e:16:a8:02:
                    3f:4f:b3:49:68:04:dd:85:b3:cb:71:1f:ac:6d:0b:
                    64:6d:3a:41:91:5e:34:af:71:62:5a:45:43:bd:57:
                    af:26:50:54:08:3c:68:70:31:6b:bc:2f:b5:62:44:
                    60:8c:d1:38:26:f4:e2:5a:8d:3a:43:e3:be:47:bc:
                    5e:dd
                Exponent: 65537 (0x10001)
        X509v3 extensions:
            X509v3 Basic Constraints: 
                CA:FALSE
            Netscape Comment: 
                OpenSSL Generated Certificate
            X509v3 Subject Key Identifier: 
                1C:FD:76:B5:C6:4B:ED:A3:40:65:5A:FD:83:EE:39:3B:DB:D0:FD:30
            X509v3 Authority Key Identifier: 
                keyid:C3:D1:EA:13:08:F1:6F:ED:AA:16:0D:C4:A3:4E:82:06:FA:A7:DE:A7

    Signature Algorithm: sha1WithRSAEncryption
         95:10:82:85:97:19:ae:f1:b0:63:61:62:15:cc:e4:1e:2a:56:
         1e:c2:75:47:a9:1c:18:97:ab:36:aa:f1:5a:6d:69:06:c6:92:
         66:8d:dd:5c:08:38:45:10:95:3b:9f:3d:e7:4c:6b:48:45:82:
         a3:63:96:d6:09:f3:1f:d7:fd:c3:1a:ae:fd:5e:4a:39:d2:49:
         1e:ae:99:c8:50:ea:4d:61:3e:0a:cb:8f:23:66:6d:b7:a3:c9:
         c9:a8:90:8d:68:bb:fc:33:d3:93:47:f7:67:7f:74:4f:14:63:
         e4:7f:0f:ba:c5:8a:bd:d3:3f:52:df:c9:cc:71:b8:91:38:a0:
         ea:2e:aa:b6:d8:ce:99:43:e6:01:25:b3:b8:7a:af:79:28:a8:
         44:7d:c1:5b:75:aa:a1:22:fd:33:06:d9:66:a6:03:b5:ac:db:
         9f:e6:0b:ad:a8:37:e7:41:7e:bd:37:4b:de:81:e4:58:4b:b3:
         3f:80:bf:43:e2:eb:75:44:b5:75:eb:5a:01:d1:65:6d:b2:0f:
         95:bf:ad:cd:52:39:f6:3d:c5:12:fa:ca:f6:c4:13:74:48:3e:
         80:b8:78:1f:86:ce:76:30:81:6c:0d:4a:9d:0c:43:70:3c:38:
         67:e4:74:ad:3b:0b:45:eb:a0:9d:3d:98:a9:fc:c7:ab:f1:18:
         d9:58:61:ca
-----BEGIN CERTIFICATE-----
MIIDqDCCApCgAwIBAgIJANPdTyDUeHX3MA0GCSqGSIb3DQEBBQUAME0xCzAJBgNV
BAYTAklUMQ4wDAYDVQQIDAVMYXppbzEhMB8GA1UECgwYSW50ZXJuZXQgV2lkZ2l0
cyBQdHkgTHRkMQswCQYDVQQDDAJjYTAeFw0xNjAzMTQyMTM4MjBaFw0xNzAzMTQy
MTM4MjBaMF0xCzAJBgNVBAYTAklUMQ4wDAYDVQQIDAVMYXppbzENMAsGA1UEBwwE
Um9tZTEhMB8GA1UECgwYSW50ZXJuZXQgV2lkZ2l0cyBQdHkgTHRkMQwwCgYDVQQD
DANrbWMwggEiMA0GCSqGSIb3DQEBAQUAA4IBDwAwggEKAoIBAQC6fqeZauwWBoh9
QRiU+fZ7iomhN/LzwToK2UAG6gX61IQUdW6H6JiLc4P8e5UUWdogZCSH+s+VULmi
NYfbSj3ZluONVUvU4/ng+SE3PWvaWFy0yu/jUeviNLttMBT2z/TvCRNKhx1x4UNG
mJN36fs9vsaeaTMsYJzI3gpAoVGfwMpohvHLYREYxP5U+LEwatDxwzwyWav8L9pI
bfW/8jjrwr/AcE5Z/tsP/PpvVlhV8bqqIkbfLT5kMwwfBtduLhaoAj9Ps0loBN2F
s8txH6xtC2RtOkGRXjSvcWJaRUO9V68mUFQIPGhwMWu8L7ViRGCM0Tgm9OJajTpD
475HvF7dAgMBAAGjezB5MAkGA1UdEwQCMAAwLAYJYIZIAYb4QgENBB8WHU9wZW5T
U0wgR2VuZXJhdGVkIENlcnRpZmljYXRlMB0GA1UdDgQWBBQc/Xa1xkvto0BlWv2D
7jk729D9MDAfBgNVHSMEGDAWgBTD0eoTCPFv7aoWDcSjToIG+qfepzANBgkqhkiG
9w0BAQUFAAOCAQEAlRCChZcZrvGwY2FiFczkHipWHsJ1R6kcGJerNqrxWm1pBsaS
Zo3dXAg4RRCVO58950xrSEWCo2OW1gnzH9f9wxqu/V5KOdJJHq6ZyFDqTWE+CsuP
I2Ztt6PJyaiQjWi7/DPTk0f3Z390TxRj5H8PusWKvdM/Ut/JzHG4kTig6i6qttjO
mUPmASWzuHqveSioRH3BW3WqoSL9MwbZZqYDtazbn+YLrag350F+vTdL3oHkWEuz
P4C/Q+LrdUS1detaAdFlbbIPlb+tzVI59j3FEvrK9sQTdEg+gLh4H4bOdjCBbA1K
nQxDcDw4Z+R0rTsLReugnT2YqfzHq/EY2Vhhyg==
-----END CERTIFICATE-----
