Certificate:
    Data:
        Version: 3 (0x2)
        Serial Number: 17969182891478327788 (0xf95f5ca28e97a1ec)
    Signature Algorithm: sha256WithRSAEncryption
        Issuer: C=IT, ST=Lazio, O=Internet Widgits Pty Ltd, CN=ca
        Validity
            Not Before: Mar 11 09:59:06 2016 GMT
            Not After : Mar 11 09:59:06 2017 GMT
        Subject: C=IT, ST=Lazio, L=Rome, O=Internet Widgits Pty Ltd, CN=track
        Subject Public Key Info:
            Public Key Algorithm: rsaEncryption
                Public-Key: (2048 bit)
                Modulus:
                    00:e3:a6:e8:a7:74:9c:f6:1c:fd:2b:e7:ca:ba:eb:
                    e2:d7:c0:cd:c3:37:be:8b:27:8b:41:8f:39:ea:7e:
                    e9:0c:97:cc:c8:8a:1a:5a:fd:6f:18:06:8c:2d:df:
                    12:88:85:d0:d8:49:ae:90:2b:48:cf:ee:09:bf:b7:
                    9e:e4:7e:2e:17:ab:74:67:ed:fc:f7:84:58:e3:d2:
                    ea:56:03:d9:3d:b7:36:ae:b0:62:82:8e:22:2f:73:
                    37:61:c1:c6:68:71:df:01:a9:b7:6f:b3:87:9e:d1:
                    25:66:b4:4b:b0:91:ce:ab:97:75:40:00:48:4f:80:
                    bf:69:f4:1f:c3:47:e3:4d:21:34:69:a3:c0:15:60:
                    b2:82:01:94:8d:01:cd:ac:c5:12:5d:fd:f1:d1:1c:
                    e8:aa:ab:15:05:fe:20:35:79:f0:4d:ba:cf:8f:04:
                    90:dc:03:5a:d0:39:c8:d4:39:a8:da:a3:63:76:76:
                    cb:f6:b7:89:d0:65:6a:d7:12:7c:0b:bc:fb:e5:96:
                    82:0f:7e:5a:15:c0:a2:a3:76:64:f6:e6:c3:03:63:
                    79:05:6a:ed:9d:46:9b:70:eb:03:c4:87:68:98:63:
                    9a:30:e9:ae:da:f3:d2:e2:fe:68:c6:c1:c7:e0:22:
                    09:fe:6a:85:fe:26:c7:fd:db:2a:c3:f6:a8:31:38:
                    91:31
                Exponent: 65537 (0x10001)
        X509v3 extensions:
            X509v3 Basic Constraints: 
                CA:FALSE
            Netscape Comment: 
                OpenSSL Generated Certificate
            X509v3 Subject Key Identifier: 
                02:33:CE:F6:8E:8E:7F:99:09:78:66:37:2D:13:18:16:8D:53:E1:E7
            X509v3 Authority Key Identifier: 
                keyid:B2:FA:8C:E6:CB:78:89:C4:F4:D9:74:BF:24:38:0D:1D:06:30:C8:E9

    Signature Algorithm: sha256WithRSAEncryption
         7d:8a:ee:68:23:04:eb:80:2f:70:21:5d:7c:73:41:59:fd:33:
         8a:50:79:61:ac:b8:8b:99:c7:47:1d:43:4d:90:67:d7:8b:46:
         07:16:61:eb:a1:9e:80:f9:02:9e:40:ec:79:55:f6:be:eb:1f:
         ac:ec:00:dc:60:a8:36:16:d9:15:ec:25:d0:7d:6a:1a:a0:b6:
         9d:9b:89:4f:1f:32:76:3f:93:ed:d0:39:34:d4:4d:a2:38:4c:
         b2:3c:30:53:75:0b:e5:fa:17:eb:66:2b:9a:1a:0e:a4:dd:2f:
         76:46:61:f4:69:a7:d3:26:18:2e:a3:37:f1:a3:05:b0:39:78:
         23:8a:d1:23:6f:e7:4f:8c:67:a3:47:27:dc:72:eb:3c:37:b2:
         27:a8:e9:dc:52:21:94:4e:99:14:b0:a7:4f:47:78:95:5b:03:
         82:6d:b6:a1:64:8b:7b:23:79:ff:86:88:63:e6:e4:23:ba:9b:
         cd:8b:20:8f:e0:d7:56:2f:1a:9d:da:2f:59:e1:45:7b:77:23:
         22:19:d0:34:a0:06:cd:0c:96:05:0b:7e:73:57:87:42:b0:86:
         37:87:21:e0:c1:54:76:3a:1b:37:41:ed:87:65:10:dd:18:20:
         ef:67:2e:c5:56:09:83:31:3b:4a:ff:5a:92:6b:f1:04:6f:33:
         76:9a:ef:0f
-----BEGIN CERTIFICATE-----
MIIDqjCCApKgAwIBAgIJAPlfXKKOl6HsMA0GCSqGSIb3DQEBCwUAME0xCzAJBgNV
BAYTAklUMQ4wDAYDVQQIDAVMYXppbzEhMB8GA1UECgwYSW50ZXJuZXQgV2lkZ2l0
cyBQdHkgTHRkMQswCQYDVQQDDAJjYTAeFw0xNjAzMTEwOTU5MDZaFw0xNzAzMTEw
OTU5MDZaMF8xCzAJBgNVBAYTAklUMQ4wDAYDVQQIDAVMYXppbzENMAsGA1UEBwwE
Um9tZTEhMB8GA1UECgwYSW50ZXJuZXQgV2lkZ2l0cyBQdHkgTHRkMQ4wDAYDVQQD
DAV0cmFjazCCASIwDQYJKoZIhvcNAQEBBQADggEPADCCAQoCggEBAOOm6Kd0nPYc
/Svnyrrr4tfAzcM3vosni0GPOep+6QyXzMiKGlr9bxgGjC3fEoiF0NhJrpArSM/u
Cb+3nuR+LherdGft/PeEWOPS6lYD2T23Nq6wYoKOIi9zN2HBxmhx3wGpt2+zh57R
JWa0S7CRzquXdUAASE+Av2n0H8NH400hNGmjwBVgsoIBlI0BzazFEl398dEc6Kqr
FQX+IDV58E26z48EkNwDWtA5yNQ5qNqjY3Z2y/a3idBlatcSfAu8++WWgg9+WhXA
oqN2ZPbmwwNjeQVq7Z1Gm3DrA8SHaJhjmjDprtrz0uL+aMbBx+AiCf5qhf4mx/3b
KsP2qDE4kTECAwEAAaN7MHkwCQYDVR0TBAIwADAsBglghkgBhvhCAQ0EHxYdT3Bl
blNTTCBHZW5lcmF0ZWQgQ2VydGlmaWNhdGUwHQYDVR0OBBYEFAIzzvaOjn+ZCXhm
Ny0TGBaNU+HnMB8GA1UdIwQYMBaAFLL6jObLeInE9Nl0vyQ4DR0GMMjpMA0GCSqG
SIb3DQEBCwUAA4IBAQB9iu5oIwTrgC9wIV18c0FZ/TOKUHlhrLiLmcdHHUNNkGfX
i0YHFmHroZ6A+QKeQOx5Vfa+6x+s7ADcYKg2FtkV7CXQfWoaoLadm4lPHzJ2P5Pt
0Dk01E2iOEyyPDBTdQvl+hfrZiuaGg6k3S92RmH0aafTJhguozfxowWwOXgjitEj
b+dPjGejRyfccus8N7InqOncUiGUTpkUsKdPR3iVWwOCbbahZIt7I3n/hohj5uQj
upvNiyCP4NdWLxqd2i9Z4UV7dyMiGdA0oAbNDJYFC35zV4dCsIY3hyHgwVR2Ohs3
Qe2HZRDdGCDvZy7FVgmDMTtK/1qSa/EEbzN2mu8P
-----END CERTIFICATE-----
