Certificate:
    Data:
        Version: 3 (0x2)
        Serial Number: 15266445314278061560 (0xd3dd4f20d47875f8)
    Signature Algorithm: sha1WithRSAEncryption
        Issuer: C=IT, ST=Lazio, O=Internet Widgits Pty Ltd, CN=ca
        Validity
            Not Before: Mar 14 21:39:27 2016 GMT
            Not After : Mar 14 21:39:27 2017 GMT
        Subject: C=IT, ST=Lazio, L=Rome, O=Internet Widgits Pty Ltd, CN=track
        Subject Public Key Info:
            Public Key Algorithm: rsaEncryption
                Public-Key: (2048 bit)
                Modulus:
                    00:97:6a:67:43:5c:ea:a5:1e:13:e2:ed:2b:87:c6:
                    6e:87:b8:54:79:17:df:cd:1f:13:c7:34:2a:33:74:
                    c8:b3:b3:ad:b9:3d:95:1f:6c:99:3e:7d:d9:06:37:
                    20:5c:1d:b8:3c:41:e3:94:ae:41:e1:9b:e2:93:66:
                    36:3e:2d:43:97:9b:17:5a:4f:ef:a8:f6:70:51:b8:
                    5e:7e:a5:80:c4:15:0f:14:c9:65:e1:89:c6:94:f9:
                    64:fa:b2:02:e6:19:fb:90:ba:d1:b4:eb:0e:a6:f7:
                    4f:68:92:0e:21:34:ba:56:15:c0:78:a2:9f:93:56:
                    12:c5:7d:94:3c:cd:fd:5f:3b:e4:41:04:f6:84:a9:
                    1d:74:d5:ae:68:52:f3:97:11:26:fa:e7:b1:a9:f1:
                    53:c5:b1:4e:32:00:41:b8:85:f3:26:b3:cb:a1:58:
                    2f:7b:2f:3c:2c:90:1c:d5:00:ff:64:22:31:c3:3a:
                    8a:ce:69:48:a3:a5:e0:37:78:bf:cb:03:77:d6:cb:
                    e1:ce:62:d1:b4:47:a9:db:75:3a:df:88:11:19:e3:
                    d8:2d:64:5b:2b:6d:69:12:79:a0:d7:54:e2:4f:28:
                    c1:fb:27:78:e4:7b:ee:7c:94:ef:4f:fe:3e:b9:38:
                    45:03:05:e1:bb:e6:f2:ee:5a:79:86:04:22:19:8f:
                    33:3d
                Exponent: 65537 (0x10001)
        X509v3 extensions:
            X509v3 Basic Constraints: 
                CA:FALSE
            Netscape Comment: 
                OpenSSL Generated Certificate
            X509v3 Subject Key Identifier: 
                11:E4:6F:97:2B:EC:F3:07:5C:63:9A:F5:0F:CA:37:96:6F:45:DD:B4
            X509v3 Authority Key Identifier: 
                keyid:C3:D1:EA:13:08:F1:6F:ED:AA:16:0D:C4:A3:4E:82:06:FA:A7:DE:A7

    Signature Algorithm: sha1WithRSAEncryption
         9e:22:16:1e:90:eb:fd:e5:0e:7d:10:09:01:68:4b:5c:ac:6d:
         a7:dc:a3:21:18:7e:13:6d:20:6a:52:61:98:ee:e0:02:ba:e0:
         21:a1:34:0b:28:03:99:b0:23:5f:53:17:56:bc:a1:a0:0e:8a:
         5a:b1:74:fd:b7:d1:10:c6:2f:f2:4b:36:d9:f5:6c:1e:ed:dc:
         7c:67:0b:bc:24:0a:d5:aa:bf:78:fb:84:88:0d:3c:49:d9:d4:
         34:96:00:f3:a7:66:e8:9d:05:7d:b9:ac:f7:91:91:69:96:6a:
         7a:31:d4:26:b5:ca:fb:d2:f7:26:55:d6:1c:14:9f:8a:bf:0b:
         0c:8f:18:7d:ea:10:21:f9:05:8b:37:75:c9:3b:0a:ae:0b:9d:
         5d:16:e6:00:f3:9e:23:d9:5d:e8:48:43:c8:2b:d2:27:6f:84:
         9b:7c:e5:72:96:f8:c6:82:1f:aa:8d:34:cd:01:35:29:fd:ec:
         69:c7:9e:1a:53:35:bd:3f:dc:df:63:56:83:f4:fd:ca:aa:b2:
         aa:03:6e:75:10:59:89:e8:eb:0e:4c:e5:4e:c3:b2:d2:b4:e2:
         3f:e2:6b:de:f7:bb:a1:2f:62:35:d2:6f:e4:b1:36:21:10:c2:
         b2:1d:a5:c3:b5:20:d9:47:78:34:de:ff:0e:c7:ea:66:87:b8:
         d2:f6:59:ff
-----BEGIN CERTIFICATE-----
MIIDqjCCApKgAwIBAgIJANPdTyDUeHX4MA0GCSqGSIb3DQEBBQUAME0xCzAJBgNV
BAYTAklUMQ4wDAYDVQQIDAVMYXppbzEhMB8GA1UECgwYSW50ZXJuZXQgV2lkZ2l0
cyBQdHkgTHRkMQswCQYDVQQDDAJjYTAeFw0xNjAzMTQyMTM5MjdaFw0xNzAzMTQy
MTM5MjdaMF8xCzAJBgNVBAYTAklUMQ4wDAYDVQQIDAVMYXppbzENMAsGA1UEBwwE
Um9tZTEhMB8GA1UECgwYSW50ZXJuZXQgV2lkZ2l0cyBQdHkgTHRkMQ4wDAYDVQQD
DAV0cmFjazCCASIwDQYJKoZIhvcNAQEBBQADggEPADCCAQoCggEBAJdqZ0Nc6qUe
E+LtK4fGboe4VHkX380fE8c0KjN0yLOzrbk9lR9smT592QY3IFwduDxB45SuQeGb
4pNmNj4tQ5ebF1pP76j2cFG4Xn6lgMQVDxTJZeGJxpT5ZPqyAuYZ+5C60bTrDqb3
T2iSDiE0ulYVwHiin5NWEsV9lDzN/V875EEE9oSpHXTVrmhS85cRJvrnsanxU8Wx
TjIAQbiF8yazy6FYL3svPCyQHNUA/2QiMcM6is5pSKOl4Dd4v8sDd9bL4c5i0bRH
qdt1Ot+IERnj2C1kWyttaRJ5oNdU4k8owfsneOR77nyU70/+Prk4RQMF4bvm8u5a
eYYEIhmPMz0CAwEAAaN7MHkwCQYDVR0TBAIwADAsBglghkgBhvhCAQ0EHxYdT3Bl
blNTTCBHZW5lcmF0ZWQgQ2VydGlmaWNhdGUwHQYDVR0OBBYEFBHkb5cr7PMHXGOa
9Q/KN5ZvRd20MB8GA1UdIwQYMBaAFMPR6hMI8W/tqhYNxKNOggb6p96nMA0GCSqG
SIb3DQEBBQUAA4IBAQCeIhYekOv95Q59EAkBaEtcrG2n3KMhGH4TbSBqUmGY7uAC
uuAhoTQLKAOZsCNfUxdWvKGgDopasXT9t9EQxi/ySzbZ9Wwe7dx8Zwu8JArVqr94
+4SIDTxJ2dQ0lgDzp2bonQV9uaz3kZFplmp6MdQmtcr70vcmVdYcFJ+KvwsMjxh9
6hAh+QWLN3XJOwquC51dFuYA854j2V3oSEPIK9Inb4SbfOVylvjGgh+qjTTNATUp
/expx54aUzW9P9zfY1aD9P3KqrKqA251EFmJ6OsOTOVOw7LStOI/4mve97uhL2I1
0m/ksTYhEMKyHaXDtSDZR3g03v8Ox+pmh7jS9ln/
-----END CERTIFICATE-----
