Certificate:
    Data:
        Version: 3 (0x2)
        Serial Number: 16137708414789930103 (0xdff4a84d5062cc77)
    Signature Algorithm: sha256WithRSAEncryption
        Issuer: C=IT, ST=Lazio, O=Internet Widgits Pty Ltd, CN=pcpiuma
        Validity
            Not Before: Feb 25 09:45:24 2016 GMT
            Not After : Feb 24 09:45:24 2017 GMT
        Subject: C=IT, ST=Some-State, O=Internet Widgits Pty Ltd, CN=pcpiuma
        Subject Public Key Info:
            Public Key Algorithm: rsaEncryption
                Public-Key: (2048 bit)
                Modulus:
                    00:c6:60:df:93:7c:97:52:68:3c:d3:1e:bb:99:ec:
                    e4:74:e9:9f:65:dd:e1:f2:8e:6c:0a:f4:85:3b:60:
                    31:dd:97:0f:bf:3d:32:b2:dc:84:ec:9b:0a:35:9e:
                    58:04:43:a8:95:fc:3e:11:36:b3:6d:08:5a:04:87:
                    72:e4:aa:10:4e:44:42:ff:16:f5:f0:d2:d3:ab:8d:
                    62:98:4a:45:fa:e7:86:e1:43:43:e5:f9:29:7f:21:
                    05:22:1b:09:8b:69:bf:a5:af:46:f9:a5:3e:87:fa:
                    16:7a:05:35:22:d5:8a:9a:a5:82:40:9a:bb:b1:b1:
                    16:78:aa:65:6e:e5:7c:78:c6:69:fd:71:3f:30:35:
                    d1:91:8e:a7:8a:f5:25:e9:47:b6:67:72:ec:3d:23:
                    76:dc:83:26:d5:d0:f7:b9:79:51:2a:2d:09:41:cb:
                    80:1b:85:31:d6:ef:d6:33:c2:47:80:fb:c1:07:cd:
                    1e:ea:d1:ef:58:f8:95:e4:64:2f:94:cb:e4:16:34:
                    64:f1:c5:54:5e:ab:99:60:8e:f7:f0:d8:16:e1:93:
                    80:55:c2:9f:45:5a:7e:ae:6b:51:d0:67:07:77:2a:
                    cf:85:b6:52:46:5a:5a:ca:0c:31:d1:36:2c:fd:63:
                    88:15:52:1e:fb:77:7e:95:c8:ff:78:ff:e6:a1:8b:
                    be:c1
                Exponent: 65537 (0x10001)
        X509v3 extensions:
            X509v3 Basic Constraints: 
                CA:FALSE
            Netscape Comment: 
                OpenSSL Generated Certificate
            X509v3 Subject Key Identifier: 
                F3:42:25:A5:49:D7:FD:20:12:3E:3D:99:E2:71:CF:52:C2:94:83:ED
            X509v3 Authority Key Identifier: 
                keyid:49:F4:3C:4C:FB:2C:D4:B3:93:CA:15:1B:F5:6B:F9:F9:C7:FD:70:EF

    Signature Algorithm: sha256WithRSAEncryption
         a2:a6:54:54:fa:af:55:d7:81:0e:31:51:da:39:54:da:86:9b:
         af:ad:6f:28:19:8e:52:ea:06:a5:ec:9d:ba:a7:03:c7:07:a3:
         e9:1c:44:7d:65:a2:84:7f:d6:2c:c6:23:3e:db:7c:dd:02:e9:
         9a:ea:5c:72:e1:31:c0:a5:8a:95:2d:3c:4e:a3:74:8e:b3:16:
         f5:39:c8:05:d8:4a:4a:f5:bb:fa:e6:3d:ab:e3:a6:99:93:a5:
         e2:21:6b:f8:65:5a:f0:86:59:75:82:98:63:33:ec:0d:4c:af:
         0b:14:f7:33:f6:d1:51:66:4a:46:51:c2:f9:d9:21:7f:82:e6:
         36:27:6c:98:b6:de:33:c3:9a:ee:e9:04:80:78:0d:ac:99:4e:
         55:3e:f2:d0:d2:61:9f:f7:69:b9:f7:5f:34:42:9a:28:c1:52:
         c3:a5:22:f6:c6:db:76:cb:fc:62:d5:bd:75:fb:00:41:cc:7d:
         75:c2:18:8a:16:6c:bf:15:1f:84:99:ef:67:c3:ae:94:18:5a:
         bd:c9:51:d7:ac:72:cc:99:a9:b0:9c:09:bf:42:db:9d:2c:77:
         33:27:7f:6e:08:54:75:a6:f4:2b:8a:98:d7:ab:a3:73:66:99:
         5e:00:76:5d:4f:47:d5:be:d7:0c:76:18:24:2f:3c:6f:55:8c:
         84:e8:5d:d9
-----BEGIN CERTIFICATE-----
MIIDpzCCAo+gAwIBAgIJAN/0qE1QYsx3MA0GCSqGSIb3DQEBCwUAMFIxCzAJBgNV
BAYTAklUMQ4wDAYDVQQIDAVMYXppbzEhMB8GA1UECgwYSW50ZXJuZXQgV2lkZ2l0
cyBQdHkgTHRkMRAwDgYDVQQDDAdwY3BpdW1hMB4XDTE2MDIyNTA5NDUyNFoXDTE3
MDIyNDA5NDUyNFowVzELMAkGA1UEBhMCSVQxEzARBgNVBAgMClNvbWUtU3RhdGUx
ITAfBgNVBAoMGEludGVybmV0IFdpZGdpdHMgUHR5IEx0ZDEQMA4GA1UEAwwHcGNw
aXVtYTCCASIwDQYJKoZIhvcNAQEBBQADggEPADCCAQoCggEBAMZg35N8l1JoPNMe
u5ns5HTpn2Xd4fKObAr0hTtgMd2XD789MrLchOybCjWeWARDqJX8PhE2s20IWgSH
cuSqEE5EQv8W9fDS06uNYphKRfrnhuFDQ+X5KX8hBSIbCYtpv6WvRvmlPof6FnoF
NSLVipqlgkCau7GxFniqZW7lfHjGaf1xPzA10ZGOp4r1JelHtmdy7D0jdtyDJtXQ
97l5USotCUHLgBuFMdbv1jPCR4D7wQfNHurR71j4leRkL5TL5BY0ZPHFVF6rmWCO
9/DYFuGTgFXCn0Vafq5rUdBnB3cqz4W2UkZaWsoMMdE2LP1jiBVSHvt3fpXI/3j/
5qGLvsECAwEAAaN7MHkwCQYDVR0TBAIwADAsBglghkgBhvhCAQ0EHxYdT3BlblNT
TCBHZW5lcmF0ZWQgQ2VydGlmaWNhdGUwHQYDVR0OBBYEFPNCJaVJ1/0gEj49meJx
z1LClIPtMB8GA1UdIwQYMBaAFEn0PEz7LNSzk8oVG/Vr+fnH/XDvMA0GCSqGSIb3
DQEBCwUAA4IBAQCiplRU+q9V14EOMVHaOVTahpuvrW8oGY5S6gal7J26pwPHB6Pp
HER9ZaKEf9YsxiM+23zdAuma6lxy4THApYqVLTxOo3SOsxb1OcgF2EpK9bv65j2r
46aZk6XiIWv4ZVrwhll1gphjM+wNTK8LFPcz9tFRZkpGUcL52SF/guY2J2yYtt4z
w5ru6QSAeA2smU5VPvLQ0mGf92m59180QpoowVLDpSL2xtt2y/xi1b11+wBBzH11
whiKFmy/FR+Eme9nw66UGFq9yVHXrHLMmamwnAm/QtudLHczJ39uCFR1pvQripjX
q6NzZpleAHZdT0fVvtcMdhgkLzxvVYyE6F3Z
-----END CERTIFICATE-----
